target datalayout = "e-m:e-p270:32:32-p271:32:32-p272:64:64-i64:64-i128:128-f80:128-n8:16:32:64-S128"
target triple = "x86_64-pc-linux-gnu"

%struct.FunctionCallInfoBaseData = type { ptr, ptr, ptr, i32, i8, i16, [0 x %struct.NullableDatum] }
%struct.NullableDatum = type { i64, i8 }
%struct.HeapTupleData = type { i32, %struct.ItemPointerData, i32, ptr }
%struct.ItemPointerData = type { %struct.BlockIdData, i16 }
%struct.BlockIdData = type { i16, i16 }
%struct.nameData = type { [64 x i8] }
%struct.PgStat_StatReplSlotEntry = type { i64, i64, i64, i64, i64, i64, i64, i64, i64 }

@.str.27 = private unnamed_addr constant [12 x i8] c"stats_reset\00", align 1
@.str.45 = private unnamed_addr constant [10 x i8] c"slot_name\00", align 1
@.str.46 = private unnamed_addr constant [11 x i8] c"spill_txns\00", align 1
@.str.47 = private unnamed_addr constant [12 x i8] c"spill_count\00", align 1
@.str.48 = private unnamed_addr constant [12 x i8] c"spill_bytes\00", align 1
@.str.49 = private unnamed_addr constant [12 x i8] c"stream_txns\00", align 1
@.str.50 = private unnamed_addr constant [13 x i8] c"stream_count\00", align 1
@.str.51 = private unnamed_addr constant [13 x i8] c"stream_bytes\00", align 1
@.str.52 = private unnamed_addr constant [11 x i8] c"total_txns\00", align 1
@.str.53 = private unnamed_addr constant [12 x i8] c"total_bytes\00", align 1

; Function Attrs: inlinehint nounwind uwtable
define internal i64 @HeapTupleGetDatum(ptr noundef %0) #2 {
  %2 = alloca ptr, align 8
  store ptr %0, ptr %2, align 8
  %3 = load ptr, ptr %2, align 8
  %4 = getelementptr inbounds nuw %struct.HeapTupleData, ptr %3, i32 0, i32 3
  %5 = load ptr, ptr %4, align 8
  %6 = call i64 @HeapTupleHeaderGetDatum(ptr noundef %5)
  ret i64 %6
}

; Function Attrs: inlinehint nounwind uwtable
define internal i64 @TimestampTzGetDatum(i64 noundef %0) #2 {
  %2 = alloca i64, align 8
  store i64 %0, ptr %2, align 8
  %3 = load i64, ptr %2, align 8
  %4 = call i64 @Int64GetDatum(i64 noundef %3)
  ret i64 %4
}

; Function Attrs: inlinehint nounwind uwtable
define internal i64 @Int64GetDatum(i64 noundef %0) #2 {
  %2 = alloca i64, align 8
  store i64 %0, ptr %2, align 8
  %3 = load i64, ptr %2, align 8
  ret i64 %3
}

; Function Attrs: inlinehint nounwind uwtable
define internal i64 @PointerGetDatum(ptr noundef %0) #2 {
  %2 = alloca ptr, align 8
  store ptr %0, ptr %2, align 8
  %3 = load ptr, ptr %2, align 8
  %4 = ptrtoint ptr %3 to i64
  ret i64 %4
}

; Function Attrs: inlinehint nounwind uwtable
define internal ptr @DatumGetPointer(i64 noundef %0) #2 {
  %2 = alloca i64, align 8
  store i64 %0, ptr %2, align 8
  %3 = load i64, ptr %2, align 8
  %4 = inttoptr i64 %3 to ptr
  ret ptr %4
}

; Function Attrs: nounwind uwtable
define dso_local i64 @pg_stat_get_replication_slot(ptr noundef %0) #0 {
  %2 = alloca ptr, align 8
  %3 = alloca ptr, align 8
  %4 = alloca %struct.nameData, align 8
  %5 = alloca ptr, align 8
  %6 = alloca [10 x i64], align 16
  %7 = alloca [10 x i8], align 1
  %8 = alloca ptr, align 8
  %9 = alloca %struct.PgStat_StatReplSlotEntry, align 8
  store ptr %0, ptr %2, align 8
  call void @llvm.lifetime.start.p0(i64 8, ptr %3) #10
  %10 = load ptr, ptr %2, align 8
  %11 = getelementptr inbounds nuw %struct.FunctionCallInfoBaseData, ptr %10, i32 0, i32 6
  %12 = getelementptr inbounds [0 x %struct.NullableDatum], ptr %11, i64 0, i64 0
  %13 = getelementptr inbounds nuw %struct.NullableDatum, ptr %12, i32 0, i32 0
  %14 = load i64, ptr %13, align 8
  %15 = call ptr @DatumGetPointer(i64 noundef %14)
  %16 = call ptr @pg_detoast_datum(ptr noundef %15)
  store ptr %16, ptr %3, align 8
  call void @llvm.lifetime.start.p0(i64 64, ptr %4) #10
  call void @llvm.lifetime.start.p0(i64 8, ptr %5) #10
  call void @llvm.lifetime.start.p0(i64 80, ptr %6) #10
  call void @llvm.memset.p0.i64(ptr align 16 %6, i8 0, i64 80, i1 false)
  call void @llvm.lifetime.start.p0(i64 10, ptr %7) #10
  call void @llvm.memset.p0.i64(ptr align 1 %7, i8 0, i64 10, i1 false)
  call void @llvm.lifetime.start.p0(i64 8, ptr %8) #10
  call void @llvm.lifetime.start.p0(i64 72, ptr %9) #10
  %17 = call ptr @CreateTemplateTupleDesc(i32 noundef 10)
  store ptr %17, ptr %5, align 8
  %18 = load ptr, ptr %5, align 8
  call void @TupleDescInitEntry(ptr noundef %18, i16 noundef signext 1, ptr noundef @.str.45, i32 noundef 25, i32 noundef -1, i32 noundef 0)
  %19 = load ptr, ptr %5, align 8
  call void @TupleDescInitEntry(ptr noundef %19, i16 noundef signext 2, ptr noundef @.str.46, i32 noundef 20, i32 noundef -1, i32 noundef 0)
  %20 = load ptr, ptr %5, align 8
  call void @TupleDescInitEntry(ptr noundef %20, i16 noundef signext 3, ptr noundef @.str.47, i32 noundef 20, i32 noundef -1, i32 noundef 0)
  %21 = load ptr, ptr %5, align 8
  call void @TupleDescInitEntry(ptr noundef %21, i16 noundef signext 4, ptr noundef @.str.48, i32 noundef 20, i32 noundef -1, i32 noundef 0)
  %22 = load ptr, ptr %5, align 8
  call void @TupleDescInitEntry(ptr noundef %22, i16 noundef signext 5, ptr noundef @.str.49, i32 noundef 20, i32 noundef -1, i32 noundef 0)
  %23 = load ptr, ptr %5, align 8
  call void @TupleDescInitEntry(ptr noundef %23, i16 noundef signext 6, ptr noundef @.str.50, i32 noundef 20, i32 noundef -1, i32 noundef 0)
  %24 = load ptr, ptr %5, align 8
  call void @TupleDescInitEntry(ptr noundef %24, i16 noundef signext 7, ptr noundef @.str.51, i32 noundef 20, i32 noundef -1, i32 noundef 0)
  %25 = load ptr, ptr %5, align 8
  call void @TupleDescInitEntry(ptr noundef %25, i16 noundef signext 8, ptr noundef @.str.52, i32 noundef 20, i32 noundef -1, i32 noundef 0)
  %26 = load ptr, ptr %5, align 8
  call void @TupleDescInitEntry(ptr noundef %26, i16 noundef signext 9, ptr noundef @.str.53, i32 noundef 20, i32 noundef -1, i32 noundef 0)
  %27 = load ptr, ptr %5, align 8
  call void @TupleDescInitEntry(ptr noundef %27, i16 noundef signext 10, ptr noundef @.str.27, i32 noundef 1184, i32 noundef -1, i32 noundef 0)
  %28 = load ptr, ptr %5, align 8
  %29 = call ptr @BlessTupleDesc(ptr noundef %28)
  %30 = load ptr, ptr %3, align 8
  %31 = call ptr @text_to_cstring(ptr noundef %30)
  call void @namestrcpy(ptr noundef %4, ptr noundef %31)
  %32 = call ptr @pgstat_fetch_replslot(ptr noundef byval(%struct.nameData) align 8 %4)
  store ptr %32, ptr %8, align 8
  %33 = load ptr, ptr %8, align 8
  %34 = icmp ne ptr %33, null
  br i1 %34, label %36, label %35

35:                                               ; preds = %1
  call void @llvm.memset.p0.i64(ptr align 8 %9, i8 0, i64 72, i1 false)
  store ptr %9, ptr %8, align 8
  br label %36

36:                                               ; preds = %35, %1
  %37 = getelementptr inbounds nuw %struct.nameData, ptr %4, i32 0, i32 0
  %38 = getelementptr inbounds [64 x i8], ptr %37, i64 0, i64 0
  %39 = call ptr @cstring_to_text(ptr noundef %38)
  %40 = call i64 @PointerGetDatum(ptr noundef %39)
  %41 = getelementptr inbounds [10 x i64], ptr %6, i64 0, i64 0
  store i64 %40, ptr %41, align 16
  %42 = load ptr, ptr %8, align 8
  %43 = getelementptr inbounds nuw %struct.PgStat_StatReplSlotEntry, ptr %42, i32 0, i32 0
  %44 = load i64, ptr %43, align 8
  %45 = call i64 @Int64GetDatum(i64 noundef %44)
  %46 = getelementptr inbounds [10 x i64], ptr %6, i64 0, i64 1
  store i64 %45, ptr %46, align 8
  %47 = load ptr, ptr %8, align 8
  %48 = getelementptr inbounds nuw %struct.PgStat_StatReplSlotEntry, ptr %47, i32 0, i32 1
  %49 = load i64, ptr %48, align 8
  %50 = call i64 @Int64GetDatum(i64 noundef %49)
  %51 = getelementptr inbounds [10 x i64], ptr %6, i64 0, i64 2
  store i64 %50, ptr %51, align 16
  %52 = load ptr, ptr %8, align 8
  %53 = getelementptr inbounds nuw %struct.PgStat_StatReplSlotEntry, ptr %52, i32 0, i32 2
  %54 = load i64, ptr %53, align 8
  %55 = call i64 @Int64GetDatum(i64 noundef %54)
  %56 = getelementptr inbounds [10 x i64], ptr %6, i64 0, i64 3
  store i64 %55, ptr %56, align 8
  %57 = load ptr, ptr %8, align 8
  %58 = getelementptr inbounds nuw %struct.PgStat_StatReplSlotEntry, ptr %57, i32 0, i32 3
  %59 = load i64, ptr %58, align 8
  %60 = call i64 @Int64GetDatum(i64 noundef %59)
  %61 = getelementptr inbounds [10 x i64], ptr %6, i64 0, i64 4
  store i64 %60, ptr %61, align 16
  %62 = load ptr, ptr %8, align 8
  %63 = getelementptr inbounds nuw %struct.PgStat_StatReplSlotEntry, ptr %62, i32 0, i32 4
  %64 = load i64, ptr %63, align 8
  %65 = call i64 @Int64GetDatum(i64 noundef %64)
  %66 = getelementptr inbounds [10 x i64], ptr %6, i64 0, i64 5
  store i64 %65, ptr %66, align 8
  %67 = load ptr, ptr %8, align 8
  %68 = getelementptr inbounds nuw %struct.PgStat_StatReplSlotEntry, ptr %67, i32 0, i32 5
  %69 = load i64, ptr %68, align 8
  %70 = call i64 @Int64GetDatum(i64 noundef %69)
  %71 = getelementptr inbounds [10 x i64], ptr %6, i64 0, i64 6
  store i64 %70, ptr %71, align 16
  %72 = load ptr, ptr %8, align 8
  %73 = getelementptr inbounds nuw %struct.PgStat_StatReplSlotEntry, ptr %72, i32 0, i32 6
  %74 = load i64, ptr %73, align 8
  %75 = call i64 @Int64GetDatum(i64 noundef %74)
  %76 = getelementptr inbounds [10 x i64], ptr %6, i64 0, i64 7
  store i64 %75, ptr %76, align 8
  %77 = load ptr, ptr %8, align 8
  %78 = getelementptr inbounds nuw %struct.PgStat_StatReplSlotEntry, ptr %77, i32 0, i32 7
  %79 = load i64, ptr %78, align 8
  %80 = call i64 @Int64GetDatum(i64 noundef %79)
  %81 = getelementptr inbounds [10 x i64], ptr %6, i64 0, i64 8
  store i64 %80, ptr %81, align 16
  %82 = load ptr, ptr %8, align 8
  %83 = getelementptr inbounds nuw %struct.PgStat_StatReplSlotEntry, ptr %82, i32 0, i32 8
  %84 = load i64, ptr %83, align 8
  %85 = icmp eq i64 %84, 0
  br i1 %85, label %86, label %88

86:                                               ; preds = %36
  %87 = getelementptr inbounds [10 x i8], ptr %7, i64 0, i64 9
  store i8 1, ptr %87, align 1
  br label %94

88:                                               ; preds = %36
  %89 = load ptr, ptr %8, align 8
  %90 = getelementptr inbounds nuw %struct.PgStat_StatReplSlotEntry, ptr %89, i32 0, i32 8
  %91 = load i64, ptr %90, align 8
  %92 = call i64 @TimestampTzGetDatum(i64 noundef %91)
  %93 = getelementptr inbounds [10 x i64], ptr %6, i64 0, i64 9
  store i64 %92, ptr %93, align 8
  br label %94

94:                                               ; preds = %88, %86
  %95 = load ptr, ptr %5, align 8
  %96 = getelementptr inbounds [10 x i64], ptr %6, i64 0, i64 0
  %97 = getelementptr inbounds [10 x i8], ptr %7, i64 0, i64 0
  %98 = call ptr @heap_form_tuple(ptr noundef %95, ptr noundef %96, ptr noundef %97)
  %99 = call i64 @HeapTupleGetDatum(ptr noundef %98)
  call void @llvm.lifetime.end.p0(i64 72, ptr %9) #10
  call void @llvm.lifetime.end.p0(i64 8, ptr %8) #10
  call void @llvm.lifetime.end.p0(i64 10, ptr %7) #10
  call void @llvm.lifetime.end.p0(i64 80, ptr %6) #10
  call void @llvm.lifetime.end.p0(i64 8, ptr %5) #10
  call void @llvm.lifetime.end.p0(i64 64, ptr %4) #10
  call void @llvm.lifetime.end.p0(i64 8, ptr %3) #10
  ret i64 %99
}