; Function Attrs: nounwind uwtable
define dso_local i64 @pg_stat_get_replication_slot(ptr noundef readonly captures(none) %0) local_unnamed_addr #0 {
  %2 = alloca %struct.nameData, align 8
  %3 = alloca [10 x i64], align 16
  %4 = alloca [10 x i8], align 1
  %5 = alloca %struct.PgStat_StatReplSlotEntry, align 8
  %6 = getelementptr inbounds nuw i8, ptr %0, i64 32
  %7 = load i64, ptr %6, align 8
  %8 = inttoptr i64 %7 to ptr
  %9 = tail call ptr @pg_detoast_datum(ptr noundef %8) #9
  call void @llvm.lifetime.start.p0(i64 64, ptr nonnull %2) #9
  call void @llvm.lifetime.start.p0(i64 80, ptr nonnull %3) #9
  call void @llvm.memset.p0.i64(ptr noundef nonnull align 16 dereferenceable(80) %3, i8 0, i64 80, i1 false)
  call void @llvm.lifetime.start.p0(i64 10, ptr nonnull %4) #9
  call void @llvm.memset.p0.i64(ptr noundef nonnull align 1 dereferenceable(10) %4, i8 0, i64 10, i1 false)
  call void @llvm.lifetime.start.p0(i64 72, ptr nonnull %5) #9
  %10 = tail call ptr @CreateTemplateTupleDesc(i32 noundef 10) #9
  tail call void @TupleDescInitEntry(ptr noundef %10, i16 noundef signext 1, ptr noundef nonnull @.str.45, i32 noundef 25, i32 noundef -1, i32 noundef 0) #9
  tail call void @TupleDescInitEntry(ptr noundef %10, i16 noundef signext 2, ptr noundef nonnull @.str.46, i32 noundef 20, i32 noundef -1, i32 noundef 0) #9
  tail call void @TupleDescInitEntry(ptr noundef %10, i16 noundef signext 3, ptr noundef nonnull @.str.47, i32 noundef 20, i32 noundef -1, i32 noundef 0) #9
  tail call void @TupleDescInitEntry(ptr noundef %10, i16 noundef signext 4, ptr noundef nonnull @.str.48, i32 noundef 20, i32 noundef -1, i32 noundef 0) #9
  tail call void @TupleDescInitEntry(ptr noundef %10, i16 noundef signext 5, ptr noundef nonnull @.str.49, i32 noundef 20, i32 noundef -1, i32 noundef 0) #9
  tail call void @TupleDescInitEntry(ptr noundef %10, i16 noundef signext 6, ptr noundef nonnull @.str.50, i32 noundef 20, i32 noundef -1, i32 noundef 0) #9
  tail call void @TupleDescInitEntry(ptr noundef %10, i16 noundef signext 7, ptr noundef nonnull @.str.51, i32 noundef 20, i32 noundef -1, i32 noundef 0) #9
  tail call void @TupleDescInitEntry(ptr noundef %10, i16 noundef signext 8, ptr noundef nonnull @.str.52, i32 noundef 20, i32 noundef -1, i32 noundef 0) #9
  tail call void @TupleDescInitEntry(ptr noundef %10, i16 noundef signext 9, ptr noundef nonnull @.str.53, i32 noundef 20, i32 noundef -1, i32 noundef 0) #9
  tail call void @TupleDescInitEntry(ptr noundef %10, i16 noundef signext 10, ptr noundef nonnull @.str.27, i32 noundef 1184, i32 noundef -1, i32 noundef 0) #9
  %11 = tail call ptr @BlessTupleDesc(ptr noundef %10) #9
  %12 = tail call ptr @text_to_cstring(ptr noundef %9) #9
  call void @namestrcpy(ptr noundef nonnull %2, ptr noundef %12) #9
  %13 = call ptr @pgstat_fetch_replslot(ptr noundef nonnull byval(%struct.nameData) align 8 %2) #9
  %.not = icmp eq ptr %13, null
  br i1 %.not, label %14, label %15

14:                                               ; preds = %1
  call void @llvm.memset.p0.i64(ptr noundef nonnull align 8 dereferenceable(72) %5, i8 0, i64 72, i1 false)
  br label %15

15:                                               ; preds = %14, %1
  %.0 = phi ptr [ %13, %1 ], [ %5, %14 ]
  %16 = call ptr @cstring_to_text(ptr noundef nonnull %2) #9
  %17 = ptrtoint ptr %16 to i64
  store i64 %17, ptr %3, align 16
  %18 = load i64, ptr %.0, align 8
  %19 = getelementptr inbounds nuw i8, ptr %3, i64 8
  store i64 %18, ptr %19, align 8
  %20 = getelementptr inbounds nuw i8, ptr %.0, i64 8
  %21 = load i64, ptr %20, align 8
  %22 = getelementptr inbounds nuw i8, ptr %3, i64 16
  store i64 %21, ptr %22, align 16
  %23 = getelementptr inbounds nuw i8, ptr %.0, i64 16
  %24 = load i64, ptr %23, align 8
  %25 = getelementptr inbounds nuw i8, ptr %3, i64 24
  store i64 %24, ptr %25, align 8
  %26 = getelementptr inbounds nuw i8, ptr %.0, i64 24
  %27 = load i64, ptr %26, align 8
  %28 = getelementptr inbounds nuw i8, ptr %3, i64 32
  store i64 %27, ptr %28, align 16
  %29 = getelementptr inbounds nuw i8, ptr %.0, i64 32
  %30 = load i64, ptr %29, align 8
  %31 = getelementptr inbounds nuw i8, ptr %3, i64 40
  store i64 %30, ptr %31, align 8
  %32 = getelementptr inbounds nuw i8, ptr %.0, i64 40
  %33 = load i64, ptr %32, align 8
  %34 = getelementptr inbounds nuw i8, ptr %3, i64 48
  store i64 %33, ptr %34, align 16
  %35 = getelementptr inbounds nuw i8, ptr %.0, i64 48
  %36 = load i64, ptr %35, align 8
  %37 = getelementptr inbounds nuw i8, ptr %3, i64 56
  store i64 %36, ptr %37, align 8
  %38 = getelementptr inbounds nuw i8, ptr %.0, i64 56
  %39 = load i64, ptr %38, align 8
  %40 = getelementptr inbounds nuw i8, ptr %3, i64 64
  store i64 %39, ptr %40, align 16
  %41 = getelementptr inbounds nuw i8, ptr %.0, i64 64
  %42 = load i64, ptr %41, align 8
  %43 = icmp eq i64 %42, 0
  br i1 %43, label %44, label %46

44:                                               ; preds = %15
  %45 = getelementptr inbounds nuw i8, ptr %4, i64 9
  store i8 1, ptr %45, align 1
  br label %48

46:                                               ; preds = %15
  %47 = getelementptr inbounds nuw i8, ptr %3, i64 72
  store i64 %42, ptr %47, align 8
  br label %48

48:                                               ; preds = %46, %44
  %49 = call ptr @heap_form_tuple(ptr noundef %10, ptr noundef nonnull %3, ptr noundef nonnull %4) #9
  %50 = getelementptr i8, ptr %49, i64 16
  %.val = load ptr, ptr %50, align 8
  %51 = call i64 @HeapTupleHeaderGetDatum(ptr noundef %.val) #9
  call void @llvm.lifetime.end.p0(i64 72, ptr nonnull %5) #9
  call void @llvm.lifetime.end.p0(i64 10, ptr nonnull %4) #9
  call void @llvm.lifetime.end.p0(i64 80, ptr nonnull %3) #9
  call void @llvm.lifetime.end.p0(i64 64, ptr nonnull %2) #9
  ret i64 %51
}